	.file	"main.c"
	.intel_syntax noprefix
	.text
Ltext0:
	.def	___main;	.scl	2;	.type	32;	.endef
	.globl	_main
	.def	_main;	.scl	2;	.type	32;	.endef
_main:
LFB10:
	.file 1 "main.c"
	.loc 1 6 0
	.cfi_startproc
	push	ebp
	.cfi_def_cfa_offset 8
	.cfi_offset 5, -8
	mov	ebp, esp
	.cfi_def_cfa_register 5
	and	esp, -16
	sub	esp, 32
	.loc 1 6 0
	call	___main
LVL0:
	.loc 1 7 0
	mov	WORD PTR [esp+30], 10
	.loc 1 8 0
	lea	eax, [esp+30]
	mov	DWORD PTR [esp], eax
	call	_printPythagoreanTriaples
	.loc 1 10 0
	mov	eax, 0
	.loc 1 11 0
	leave
	.cfi_restore 5
	.cfi_def_cfa 4, 4
	ret
	.cfi_endproc
LFE10:
Letext0:
	.file 2 "c:/mingw/include/stdio.h"